target datalayout = "e-m:e-p270:32:32-p271:32:32-p272:64:64-i64:64-i128:128-f80:128-n8:16:32:64-S128"
target triple = "x86_64-pc-linux-gnu"

%struct.pn_test = type { i64, i64, i64, i8, [4 x i8] }

@.str.5 = private unnamed_addr constant [33 x i8] c"../openssl/test/quic_wire_test.c\00", align 1
@.str.167 = private unnamed_addr constant [7 x i8] c"pn_len\00", align 1
@.str.168 = private unnamed_addr constant [21 x i8] c"(int)t->expected_len\00", align 1
@.str.169 = private unnamed_addr constant [53 x i8] c"ossl_quic_wire_encode_pkt_hdr_pn(t->pn, buf, pn_len)\00", align 1
@.str.170 = private unnamed_addr constant [18 x i8] c"t->expected_bytes\00", align 1
@.str.171 = private unnamed_addr constant [4 x i8] c"buf\00", align 1
@.str.172 = private unnamed_addr constant [73 x i8] c"ossl_quic_wire_decode_pkt_hdr_pn(buf, pn_len, t->rx_largest_pn, &res_pn)\00", align 1
@.str.173 = private unnamed_addr constant [7 x i8] c"res_pn\00", align 1
@.str.174 = private unnamed_addr constant [6 x i8] c"t->pn\00", align 1

; Function Attrs: nounwind uwtable
define internal i32 @test_wire_pkt_hdr_pn(i32 noundef %0) #0 {
  %2 = alloca i32, align 4
  %3 = alloca i32, align 4
  %4 = alloca ptr, align 8
  %5 = alloca [4 x i8], align 1
  %6 = alloca i32, align 4
  %7 = alloca i64, align 8
  store i32 %0, ptr %2, align 4, !tbaa !4
  call void @llvm.lifetime.start.p0(i64 4, ptr %3) #5
  store i32 0, ptr %3, align 4, !tbaa !4
  call void @llvm.lifetime.start.p0(i64 8, ptr %4) #5
  %8 = load i32, ptr %2, align 4, !tbaa !4
  %9 = sext i32 %8 to i64
  %10 = getelementptr inbounds [18 x %struct.pn_test], ptr @pn_tests, i64 0, i64 %9
  store ptr %10, ptr %4, align 8, !tbaa !32
  call void @llvm.lifetime.start.p0(i64 4, ptr %5) #5
  call void @llvm.lifetime.start.p0(i64 4, ptr %6) #5
  call void @llvm.lifetime.start.p0(i64 8, ptr %7) #5
  %11 = load ptr, ptr %4, align 8, !tbaa !32
  %12 = getelementptr inbounds nuw %struct.pn_test, ptr %11, i32 0, i32 0
  %13 = load i64, ptr %12, align 8, !tbaa !34
  %14 = load ptr, ptr %4, align 8, !tbaa !32
  %15 = getelementptr inbounds nuw %struct.pn_test, ptr %14, i32 0, i32 1
  %16 = load i64, ptr %15, align 8, !tbaa !36
  %17 = call i32 @ossl_quic_wire_determine_pn_len(i64 noundef %13, i64 noundef %16)
  store i32 %17, ptr %6, align 4, !tbaa !4
  %18 = load i32, ptr %6, align 4, !tbaa !4
  %19 = load ptr, ptr %4, align 8, !tbaa !32
  %20 = getelementptr inbounds nuw %struct.pn_test, ptr %19, i32 0, i32 3
  %21 = load i8, ptr %20, align 8, !tbaa !37
  %22 = sext i8 %21 to i32
  %23 = call i32 @test_int_eq(ptr noundef @.str.5, i32 noundef 1495, ptr noundef @.str.167, ptr noundef @.str.168, i32 noundef %18, i32 noundef %22)
  %24 = icmp ne i32 %23, 0
  br i1 %24, label %26, label %25

25:                                               ; preds = %1
  br label %75

26:                                               ; preds = %1
  %27 = load ptr, ptr %4, align 8, !tbaa !32
  %28 = getelementptr inbounds nuw %struct.pn_test, ptr %27, i32 0, i32 0
  %29 = load i64, ptr %28, align 8, !tbaa !34
  %30 = getelementptr inbounds [4 x i8], ptr %5, i64 0, i64 0
  %31 = load i32, ptr %6, align 4, !tbaa !4
  %32 = sext i32 %31 to i64
  %33 = call i32 @ossl_quic_wire_encode_pkt_hdr_pn(i64 noundef %29, ptr noundef %30, i64 noundef %32)
  %34 = icmp ne i32 %33, 0
  %35 = zext i1 %34 to i32
  %36 = call i32 @test_true(ptr noundef @.str.5, i32 noundef 1498, ptr noundef @.str.169, i32 noundef %35)
  %37 = icmp ne i32 %36, 0
  br i1 %37, label %39, label %38

38:                                               ; preds = %26
  br label %75

39:                                               ; preds = %26
  %40 = load ptr, ptr %4, align 8, !tbaa !32
  %41 = getelementptr inbounds nuw %struct.pn_test, ptr %40, i32 0, i32 4
  %42 = getelementptr inbounds [4 x i8], ptr %41, i64 0, i64 0
  %43 = load ptr, ptr %4, align 8, !tbaa !32
  %44 = getelementptr inbounds nuw %struct.pn_test, ptr %43, i32 0, i32 3
  %45 = load i8, ptr %44, align 8, !tbaa !37
  %46 = sext i8 %45 to i64
  %47 = getelementptr inbounds [4 x i8], ptr %5, i64 0, i64 0
  %48 = load i32, ptr %6, align 4, !tbaa !4
  %49 = sext i32 %48 to i64
  %50 = call i32 @test_mem_eq(ptr noundef @.str.5, i32 noundef 1501, ptr noundef @.str.170, ptr noundef @.str.171, ptr noundef %42, i64 noundef %46, ptr noundef %47, i64 noundef %49)
  %51 = icmp ne i32 %50, 0
  br i1 %51, label %53, label %52

52:                                               ; preds = %39
  br label %75

53:                                               ; preds = %39
  %54 = getelementptr inbounds [4 x i8], ptr %5, i64 0, i64 0
  %55 = load i32, ptr %6, align 4, !tbaa !4
  %56 = sext i32 %55 to i64
  %57 = load ptr, ptr %4, align 8, !tbaa !32
  %58 = getelementptr inbounds nuw %struct.pn_test, ptr %57, i32 0, i32 2
  %59 = load i64, ptr %58, align 8, !tbaa !38
  %60 = call i32 @ossl_quic_wire_decode_pkt_hdr_pn(ptr noundef %54, i64 noundef %56, i64 noundef %59, ptr noundef %7)
  %61 = icmp ne i32 %60, 0
  %62 = zext i1 %61 to i32
  %63 = call i32 @test_true(ptr noundef @.str.5, i32 noundef 1505, ptr noundef @.str.172, i32 noundef %62)
  %64 = icmp ne i32 %63, 0
  br i1 %64, label %66, label %65

65:                                               ; preds = %53
  br label %75

66:                                               ; preds = %53
  %67 = load i64, ptr %7, align 8, !tbaa !19
  %68 = load ptr, ptr %4, align 8, !tbaa !32
  %69 = getelementptr inbounds nuw %struct.pn_test, ptr %68, i32 0, i32 0
  %70 = load i64, ptr %69, align 8, !tbaa !34
  %71 = call i32 @test_uint64_t_eq(ptr noundef @.str.5, i32 noundef 1508, ptr noundef @.str.173, ptr noundef @.str.174, i64 noundef %67, i64 noundef %70)
  %72 = icmp ne i32 %71, 0
  br i1 %72, label %74, label %73

73:                                               ; preds = %66
  br label %75

74:                                               ; preds = %66
  store i32 1, ptr %3, align 4, !tbaa !4
  br label %75

75:                                               ; preds = %74, %73, %65, %52, %38, %25
  %76 = load i32, ptr %3, align 4, !tbaa !4
  call void @llvm.lifetime.end.p0(i64 8, ptr %7) #5
  call void @llvm.lifetime.end.p0(i64 4, ptr %6) #5
  call void @llvm.lifetime.end.p0(i64 4, ptr %5) #5
  call void @llvm.lifetime.end.p0(i64 8, ptr %4) #5
  call void @llvm.lifetime.end.p0(i64 4, ptr %3) #5
  ret i32 %76
}