; Function Attrs: nounwind uwtable
define internal range(i32 0, 2) i32 @test_wire_pkt_hdr_pn(i32 noundef %0) #0 {
  %2 = alloca [4 x i8], align 1
  %3 = alloca i64, align 8
  %4 = sext i32 %0 to i64
  %5 = getelementptr inbounds [18 x %struct.pn_test], ptr @pn_tests, i64 0, i64 %4
  call void @llvm.lifetime.start.p0(i64 4, ptr nonnull %2) #4
  call void @llvm.lifetime.start.p0(i64 8, ptr nonnull %3) #4
  %6 = load i64, ptr %5, align 16, !tbaa !27
  %7 = getelementptr inbounds nuw i8, ptr %5, i64 8
  %8 = load i64, ptr %7, align 8, !tbaa !29
  %9 = tail call i32 @ossl_quic_wire_determine_pn_len(i64 noundef %6, i64 noundef %8) #4
  %10 = getelementptr inbounds nuw i8, ptr %5, i64 24
  %11 = load i8, ptr %10, align 8, !tbaa !30
  %12 = sext i8 %11 to i32
  %13 = tail call i32 @test_int_eq(ptr noundef nonnull @.str.5, i32 noundef 1495, ptr noundef nonnull @.str.167, ptr noundef nonnull @.str.168, i32 noundef %9, i32 noundef %12) #4
  %.not = icmp eq i32 %13, 0
  br i1 %.not, label %34, label %14

14:                                               ; preds = %1
  %15 = sext i32 %9 to i64
  %16 = call i32 @ossl_quic_wire_encode_pkt_hdr_pn(i64 noundef %6, ptr noundef nonnull %2, i64 noundef %15) #4
  %17 = icmp ne i32 %16, 0
  %18 = zext i1 %17 to i32
  %19 = call i32 @test_true(ptr noundef nonnull @.str.5, i32 noundef 1498, ptr noundef nonnull @.str.169, i32 noundef %18) #4
  %.not13 = icmp eq i32 %19, 0
  br i1 %.not13, label %34, label %20

20:                                               ; preds = %14
  %21 = getelementptr inbounds nuw i8, ptr %5, i64 25
  %22 = sext i8 %11 to i64
  %23 = call i32 @test_mem_eq(ptr noundef nonnull @.str.5, i32 noundef 1501, ptr noundef nonnull @.str.170, ptr noundef nonnull @.str.171, ptr noundef nonnull %21, i64 noundef %22, ptr noundef nonnull %2, i64 noundef %15) #4
  %.not14 = icmp eq i32 %23, 0
  br i1 %.not14, label %34, label %24

24:                                               ; preds = %20
  %25 = getelementptr inbounds nuw i8, ptr %5, i64 16
  %26 = load i64, ptr %25, align 16, !tbaa !31
  %27 = call i32 @ossl_quic_wire_decode_pkt_hdr_pn(ptr noundef nonnull %2, i64 noundef %15, i64 noundef %26, ptr noundef nonnull %3) #4
  %28 = icmp ne i32 %27, 0
  %29 = zext i1 %28 to i32
  %30 = call i32 @test_true(ptr noundef nonnull @.str.5, i32 noundef 1505, ptr noundef nonnull @.str.172, i32 noundef %29) #4
  %.not15 = icmp eq i32 %30, 0
  br i1 %.not15, label %34, label %31

31:                                               ; preds = %24
  %32 = load i64, ptr %3, align 8, !tbaa !13
  %33 = call i32 @test_uint64_t_eq(ptr noundef nonnull @.str.5, i32 noundef 1508, ptr noundef nonnull @.str.173, ptr noundef nonnull @.str.174, i64 noundef %32, i64 noundef %6) #4
  %.not16 = icmp ne i32 %33, 0
  %spec.select = zext i1 %.not16 to i32
  br label %34

34:                                               ; preds = %31, %24, %20, %14, %1
  %.0 = phi i32 [ 0, %24 ], [ 0, %20 ], [ 0, %14 ], [ 0, %1 ], [ %spec.select, %31 ]
  call void @llvm.lifetime.end.p0(i64 8, ptr nonnull %3) #4
  call void @llvm.lifetime.end.p0(i64 4, ptr nonnull %2) #4
  ret i32 %.0
}